target datalayout = "e-m:e-p270:32:32-p271:32:32-p272:64:64-i64:64-i128:128-f80:128-n8:16:32:64-S128"
target triple = "x86_64-pc-linux-gnu"

%struct.nsis_st = type { i64, i32, i32, i64, i64, ptr, i32, i32, i32, i8, i8, i8, i8, %struct.stream_state, %struct.nsis_bzstream, %struct.CLI_LZMA, %struct.nsis_z_stream_s, ptr, ptr, [1024 x i8] }
%struct.stream_state = type { i32, ptr, i32, ptr }
%struct.nsis_bzstream = type { ptr, i32, i32, i32, ptr, i32, i32, i32, ptr, ptr, ptr, ptr }
%struct.CLI_LZMA = type { %struct.CLzmaDec, [5 x i8], i32, i32, i32, i32, i64, ptr, ptr, i64, i64 }
%struct.CLzmaDec = type { %struct._CLzmaProps, ptr, ptr, ptr, i32, i32, i64, i64, i32, i32, i32, [4 x i32], i32, i32, i32, i32, i32, [20 x i8] }
%struct._CLzmaProps = type { i32, i32, i32, i32 }
%struct.nsis_z_stream_s = type { ptr, i32, i64, ptr, i32, %struct.inflate_blocks_state }
%struct.inflate_blocks_state = type { %struct.z_stuff, i32, %union.anon.0, i32, i32, i64, [1440 x %struct.inflate_huft_s], [32768 x i8], ptr, ptr, ptr, i64 }
%struct.z_stuff = type { i8, [544 x %struct.inflate_huft_s], i32, i32, ptr, ptr, [288 x i32], [288 x i32] }
%struct.inflate_huft_s = type { %union.anon, i16 }
%union.anon = type { %struct.anon }
%struct.anon = type { i8, i8 }
%union.anon.0 = type { %struct.anon.1 }
%struct.anon.1 = type { i32, i32, [320 x i32], i32, ptr }

; Function Attrs: nounwind uwtable
define internal i32 @nsis_decomp(ptr noundef %0) #0 {
  %2 = alloca ptr, align 8
  %3 = alloca i32, align 4
  store ptr %0, ptr %2, align 8
  store i32 26, ptr %3, align 4
  %4 = load ptr, ptr %2, align 8
  %5 = getelementptr inbounds %struct.nsis_st, ptr %4, i32 0, i32 9
  %6 = load i8, ptr %5, align 4
  %7 = zext i8 %6 to i32
  switch i32 %7, label %201 [
    i32 1, label %8
    i32 2, label %71
    i32 3, label %138
  ]

8:                                                ; preds = %1
  %9 = load ptr, ptr %2, align 8
  %10 = getelementptr inbounds %struct.nsis_st, ptr %9, i32 0, i32 13
  %11 = getelementptr inbounds %struct.stream_state, ptr %10, i32 0, i32 0
  %12 = load i32, ptr %11, align 8
  %13 = load ptr, ptr %2, align 8
  %14 = getelementptr inbounds %struct.nsis_st, ptr %13, i32 0, i32 14
  %15 = getelementptr inbounds %struct.nsis_bzstream, ptr %14, i32 0, i32 1
  store i32 %12, ptr %15, align 8
  %16 = load ptr, ptr %2, align 8
  %17 = getelementptr inbounds %struct.nsis_st, ptr %16, i32 0, i32 13
  %18 = getelementptr inbounds %struct.stream_state, ptr %17, i32 0, i32 1
  %19 = load ptr, ptr %18, align 8
  %20 = load ptr, ptr %2, align 8
  %21 = getelementptr inbounds %struct.nsis_st, ptr %20, i32 0, i32 14
  %22 = getelementptr inbounds %struct.nsis_bzstream, ptr %21, i32 0, i32 0
  store ptr %19, ptr %22, align 8
  %23 = load ptr, ptr %2, align 8
  %24 = getelementptr inbounds %struct.nsis_st, ptr %23, i32 0, i32 13
  %25 = getelementptr inbounds %struct.stream_state, ptr %24, i32 0, i32 2
  %26 = load i32, ptr %25, align 8
  %27 = load ptr, ptr %2, align 8
  %28 = getelementptr inbounds %struct.nsis_st, ptr %27, i32 0, i32 14
  %29 = getelementptr inbounds %struct.nsis_bzstream, ptr %28, i32 0, i32 5
  store i32 %26, ptr %29, align 8
  %30 = load ptr, ptr %2, align 8
  %31 = getelementptr inbounds %struct.nsis_st, ptr %30, i32 0, i32 13
  %32 = getelementptr inbounds %struct.stream_state, ptr %31, i32 0, i32 3
  %33 = load ptr, ptr %32, align 8
  %34 = load ptr, ptr %2, align 8
  %35 = getelementptr inbounds %struct.nsis_st, ptr %34, i32 0, i32 14
  %36 = getelementptr inbounds %struct.nsis_bzstream, ptr %35, i32 0, i32 4
  store ptr %33, ptr %36, align 8
  %37 = load ptr, ptr %2, align 8
  %38 = getelementptr inbounds %struct.nsis_st, ptr %37, i32 0, i32 14
  %39 = call i32 @nsis_BZ2_bzDecompress(ptr noundef %38)
  switch i32 %39, label %42 [
    i32 0, label %40
    i32 4, label %41
  ]

40:                                               ; preds = %8
  store i32 0, ptr %3, align 4
  br label %42

41:                                               ; preds = %8
  store i32 22, ptr %3, align 4
  br label %42

42:                                               ; preds = %41, %40, %8
  %43 = load ptr, ptr %2, align 8
  %44 = getelementptr inbounds %struct.nsis_st, ptr %43, i32 0, i32 14
  %45 = getelementptr inbounds %struct.nsis_bzstream, ptr %44, i32 0, i32 1
  %46 = load i32, ptr %45, align 8
  %47 = load ptr, ptr %2, align 8
  %48 = getelementptr inbounds %struct.nsis_st, ptr %47, i32 0, i32 13
  %49 = getelementptr inbounds %struct.stream_state, ptr %48, i32 0, i32 0
  store i32 %46, ptr %49, align 8
  %50 = load ptr, ptr %2, align 8
  %51 = getelementptr inbounds %struct.nsis_st, ptr %50, i32 0, i32 14
  %52 = getelementptr inbounds %struct.nsis_bzstream, ptr %51, i32 0, i32 0
  %53 = load ptr, ptr %52, align 8
  %54 = load ptr, ptr %2, align 8
  %55 = getelementptr inbounds %struct.nsis_st, ptr %54, i32 0, i32 13
  %56 = getelementptr inbounds %struct.stream_state, ptr %55, i32 0, i32 1
  store ptr %53, ptr %56, align 8
  %57 = load ptr, ptr %2, align 8
  %58 = getelementptr inbounds %struct.nsis_st, ptr %57, i32 0, i32 14
  %59 = getelementptr inbounds %struct.nsis_bzstream, ptr %58, i32 0, i32 5
  %60 = load i32, ptr %59, align 8
  %61 = load ptr, ptr %2, align 8
  %62 = getelementptr inbounds %struct.nsis_st, ptr %61, i32 0, i32 13
  %63 = getelementptr inbounds %struct.stream_state, ptr %62, i32 0, i32 2
  store i32 %60, ptr %63, align 8
  %64 = load ptr, ptr %2, align 8
  %65 = getelementptr inbounds %struct.nsis_st, ptr %64, i32 0, i32 14
  %66 = getelementptr inbounds %struct.nsis_bzstream, ptr %65, i32 0, i32 4
  %67 = load ptr, ptr %66, align 8
  %68 = load ptr, ptr %2, align 8
  %69 = getelementptr inbounds %struct.nsis_st, ptr %68, i32 0, i32 13
  %70 = getelementptr inbounds %struct.stream_state, ptr %69, i32 0, i32 3
  store ptr %67, ptr %70, align 8
  br label %201

71:                                               ; preds = %1
  %72 = load ptr, ptr %2, align 8
  %73 = getelementptr inbounds %struct.nsis_st, ptr %72, i32 0, i32 13
  %74 = getelementptr inbounds %struct.stream_state, ptr %73, i32 0, i32 0
  %75 = load i32, ptr %74, align 8
  %76 = zext i32 %75 to i64
  %77 = load ptr, ptr %2, align 8
  %78 = getelementptr inbounds %struct.nsis_st, ptr %77, i32 0, i32 15
  %79 = getelementptr inbounds %struct.CLI_LZMA, ptr %78, i32 0, i32 9
  store i64 %76, ptr %79, align 8
  %80 = load ptr, ptr %2, align 8
  %81 = getelementptr inbounds %struct.nsis_st, ptr %80, i32 0, i32 13
  %82 = getelementptr inbounds %struct.stream_state, ptr %81, i32 0, i32 1
  %83 = load ptr, ptr %82, align 8
  %84 = load ptr, ptr %2, align 8
  %85 = getelementptr inbounds %struct.nsis_st, ptr %84, i32 0, i32 15
  %86 = getelementptr inbounds %struct.CLI_LZMA, ptr %85, i32 0, i32 7
  store ptr %83, ptr %86, align 8
  %87 = load ptr, ptr %2, align 8
  %88 = getelementptr inbounds %struct.nsis_st, ptr %87, i32 0, i32 13
  %89 = getelementptr inbounds %struct.stream_state, ptr %88, i32 0, i32 2
  %90 = load i32, ptr %89, align 8
  %91 = zext i32 %90 to i64
  %92 = load ptr, ptr %2, align 8
  %93 = getelementptr inbounds %struct.nsis_st, ptr %92, i32 0, i32 15
  %94 = getelementptr inbounds %struct.CLI_LZMA, ptr %93, i32 0, i32 10
  store i64 %91, ptr %94, align 8
  %95 = load ptr, ptr %2, align 8
  %96 = getelementptr inbounds %struct.nsis_st, ptr %95, i32 0, i32 13
  %97 = getelementptr inbounds %struct.stream_state, ptr %96, i32 0, i32 3
  %98 = load ptr, ptr %97, align 8
  %99 = load ptr, ptr %2, align 8
  %100 = getelementptr inbounds %struct.nsis_st, ptr %99, i32 0, i32 15
  %101 = getelementptr inbounds %struct.CLI_LZMA, ptr %100, i32 0, i32 8
  store ptr %98, ptr %101, align 8
  %102 = load ptr, ptr %2, align 8
  %103 = getelementptr inbounds %struct.nsis_st, ptr %102, i32 0, i32 15
  %104 = call i32 @cli_LzmaDecode(ptr noundef %103)
  switch i32 %104, label %107 [
    i32 0, label %105
    i32 2, label %106
  ]

105:                                              ; preds = %71
  store i32 0, ptr %3, align 4
  br label %107

106:                                              ; preds = %71
  store i32 22, ptr %3, align 4
  br label %107

107:                                              ; preds = %106, %105, %71
  %108 = load ptr, ptr %2, align 8
  %109 = getelementptr inbounds %struct.nsis_st, ptr %108, i32 0, i32 15
  %110 = getelementptr inbounds %struct.CLI_LZMA, ptr %109, i32 0, i32 9
  %111 = load i64, ptr %110, align 8
  %112 = trunc i64 %111 to i32
  %113 = load ptr, ptr %2, align 8
  %114 = getelementptr inbounds %struct.nsis_st, ptr %113, i32 0, i32 13
  %115 = getelementptr inbounds %struct.stream_state, ptr %114, i32 0, i32 0
  store i32 %112, ptr %115, align 8
  %116 = load ptr, ptr %2, align 8
  %117 = getelementptr inbounds %struct.nsis_st, ptr %116, i32 0, i32 15
  %118 = getelementptr inbounds %struct.CLI_LZMA, ptr %117, i32 0, i32 7
  %119 = load ptr, ptr %118, align 8
  %120 = load ptr, ptr %2, align 8
  %121 = getelementptr inbounds %struct.nsis_st, ptr %120, i32 0, i32 13
  %122 = getelementptr inbounds %struct.stream_state, ptr %121, i32 0, i32 1
  store ptr %119, ptr %122, align 8
  %123 = load ptr, ptr %2, align 8
  %124 = getelementptr inbounds %struct.nsis_st, ptr %123, i32 0, i32 15
  %125 = getelementptr inbounds %struct.CLI_LZMA, ptr %124, i32 0, i32 10
  %126 = load i64, ptr %125, align 8
  %127 = trunc i64 %126 to i32
  %128 = load ptr, ptr %2, align 8
  %129 = getelementptr inbounds %struct.nsis_st, ptr %128, i32 0, i32 13
  %130 = getelementptr inbounds %struct.stream_state, ptr %129, i32 0, i32 2
  store i32 %127, ptr %130, align 8
  %131 = load ptr, ptr %2, align 8
  %132 = getelementptr inbounds %struct.nsis_st, ptr %131, i32 0, i32 15
  %133 = getelementptr inbounds %struct.CLI_LZMA, ptr %132, i32 0, i32 8
  %134 = load ptr, ptr %133, align 8
  %135 = load ptr, ptr %2, align 8
  %136 = getelementptr inbounds %struct.nsis_st, ptr %135, i32 0, i32 13
  %137 = getelementptr inbounds %struct.stream_state, ptr %136, i32 0, i32 3
  store ptr %134, ptr %137, align 8
  br label %201

138:                                              ; preds = %1
  %139 = load ptr, ptr %2, align 8
  %140 = getelementptr inbounds %struct.nsis_st, ptr %139, i32 0, i32 13
  %141 = getelementptr inbounds %struct.stream_state, ptr %140, i32 0, i32 0
  %142 = load i32, ptr %141, align 8
  %143 = load ptr, ptr %2, align 8
  %144 = getelementptr inbounds %struct.nsis_st, ptr %143, i32 0, i32 16
  %145 = getelementptr inbounds %struct.nsis_z_stream_s, ptr %144, i32 0, i32 1
  store i32 %142, ptr %145, align 8
  %146 = load ptr, ptr %2, align 8
  %147 = getelementptr inbounds %struct.nsis_st, ptr %146, i32 0, i32 13
  %148 = getelementptr inbounds %struct.stream_state, ptr %147, i32 0, i32 1
  %149 = load ptr, ptr %148, align 8
  %150 = load ptr, ptr %2, align 8
  %151 = getelementptr inbounds %struct.nsis_st, ptr %150, i32 0, i32 16
  %152 = getelementptr inbounds %struct.nsis_z_stream_s, ptr %151, i32 0, i32 0
  store ptr %149, ptr %152, align 8
  %153 = load ptr, ptr %2, align 8
  %154 = getelementptr inbounds %struct.nsis_st, ptr %153, i32 0, i32 13
  %155 = getelementptr inbounds %struct.stream_state, ptr %154, i32 0, i32 2
  %156 = load i32, ptr %155, align 8
  %157 = load ptr, ptr %2, align 8
  %158 = getelementptr inbounds %struct.nsis_st, ptr %157, i32 0, i32 16
  %159 = getelementptr inbounds %struct.nsis_z_stream_s, ptr %158, i32 0, i32 4
  store i32 %156, ptr %159, align 8
  %160 = load ptr, ptr %2, align 8
  %161 = getelementptr inbounds %struct.nsis_st, ptr %160, i32 0, i32 13
  %162 = getelementptr inbounds %struct.stream_state, ptr %161, i32 0, i32 3
  %163 = load ptr, ptr %162, align 8
  %164 = load ptr, ptr %2, align 8
  %165 = getelementptr inbounds %struct.nsis_st, ptr %164, i32 0, i32 16
  %166 = getelementptr inbounds %struct.nsis_z_stream_s, ptr %165, i32 0, i32 3
  store ptr %163, ptr %166, align 8
  %167 = load ptr, ptr %2, align 8
  %168 = getelementptr inbounds %struct.nsis_st, ptr %167, i32 0, i32 16
  %169 = call i32 @nsis_inflate(ptr noundef %168)
  switch i32 %169, label %172 [
    i32 0, label %170
    i32 1, label %171
  ]

170:                                              ; preds = %138
  store i32 0, ptr %3, align 4
  br label %172

171:                                              ; preds = %138
  store i32 22, ptr %3, align 4
  br label %172

172:                                              ; preds = %171, %170, %138
  %173 = load ptr, ptr %2, align 8
  %174 = getelementptr inbounds %struct.nsis_st, ptr %173, i32 0, i32 16
  %175 = getelementptr inbounds %struct.nsis_z_stream_s, ptr %174, i32 0, i32 1
  %176 = load i32, ptr %175, align 8
  %177 = load ptr, ptr %2, align 8
  %178 = getelementptr inbounds %struct.nsis_st, ptr %177, i32 0, i32 13
  %179 = getelementptr inbounds %struct.stream_state, ptr %178, i32 0, i32 0
  store i32 %176, ptr %179, align 8
  %180 = load ptr, ptr %2, align 8
  %181 = getelementptr inbounds %struct.nsis_st, ptr %180, i32 0, i32 16
  %182 = getelementptr inbounds %struct.nsis_z_stream_s, ptr %181, i32 0, i32 0
  %183 = load ptr, ptr %182, align 8
  %184 = load ptr, ptr %2, align 8
  %185 = getelementptr inbounds %struct.nsis_st, ptr %184, i32 0, i32 13
  %186 = getelementptr inbounds %struct.stream_state, ptr %185, i32 0, i32 1
  store ptr %183, ptr %186, align 8
  %187 = load ptr, ptr %2, align 8
  %188 = getelementptr inbounds %struct.nsis_st, ptr %187, i32 0, i32 16
  %189 = getelementptr inbounds %struct.nsis_z_stream_s, ptr %188, i32 0, i32 4
  %190 = load i32, ptr %189, align 8
  %191 = load ptr, ptr %2, align 8
  %192 = getelementptr inbounds %struct.nsis_st, ptr %191, i32 0, i32 13
  %193 = getelementptr inbounds %struct.stream_state, ptr %192, i32 0, i32 2
  store i32 %190, ptr %193, align 8
  %194 = load ptr, ptr %2, align 8
  %195 = getelementptr inbounds %struct.nsis_st, ptr %194, i32 0, i32 16
  %196 = getelementptr inbounds %struct.nsis_z_stream_s, ptr %195, i32 0, i32 3
  %197 = load ptr, ptr %196, align 8
  %198 = load ptr, ptr %2, align 8
  %199 = getelementptr inbounds %struct.nsis_st, ptr %198, i32 0, i32 13
  %200 = getelementptr inbounds %struct.stream_state, ptr %199, i32 0, i32 3
  store ptr %197, ptr %200, align 8
  br label %201

201:                                              ; preds = %172, %107, %42, %1
  %202 = load i32, ptr %3, align 4
  ret i32 %202
}