; Function Attrs: nounwind uwtable
define internal fastcc i32 @nsis_decomp(ptr noundef %0) unnamed_addr #0 {
  %2 = getelementptr inbounds i8, ptr %0, i64 52
  %3 = load i8, ptr %2, align 4
  switch i8 %3, label %61 [
    i8 1, label %4
    i8 2, label %21
    i8 3, label %43
  ]

4:                                                ; preds = %1
  %5 = getelementptr inbounds i8, ptr %0, i64 56
  %6 = load i32, ptr %5, align 8
  %7 = getelementptr inbounds i8, ptr %0, i64 88
  %8 = getelementptr inbounds i8, ptr %0, i64 96
  store i32 %6, ptr %8, align 8
  %9 = getelementptr inbounds i8, ptr %0, i64 64
  %10 = load ptr, ptr %9, align 8
  store ptr %10, ptr %7, align 8
  %11 = getelementptr inbounds i8, ptr %0, i64 72
  %12 = load i32, ptr %11, align 8
  %13 = getelementptr inbounds i8, ptr %0, i64 120
  store i32 %12, ptr %13, align 8
  %14 = getelementptr inbounds i8, ptr %0, i64 80
  %15 = load ptr, ptr %14, align 8
  %16 = getelementptr inbounds i8, ptr %0, i64 112
  store ptr %15, ptr %16, align 8
  %17 = tail call i32 @nsis_BZ2_bzDecompress(ptr noundef nonnull %7) #10
  %switch.selectcmp = icmp eq i32 %17, 4
  %switch.select = select i1 %switch.selectcmp, i32 22, i32 26
  %switch.selectcmp52 = icmp eq i32 %17, 0
  %switch.select53 = select i1 %switch.selectcmp52, i32 0, i32 %switch.select
  %18 = load i32, ptr %8, align 8
  store i32 %18, ptr %5, align 8
  %19 = load ptr, ptr %7, align 8
  store ptr %19, ptr %9, align 8
  %20 = load i32, ptr %13, align 8
  store i32 %20, ptr %11, align 8
  br label %.sink.split

21:                                               ; preds = %1
  %22 = getelementptr inbounds i8, ptr %0, i64 56
  %23 = load i32, ptr %22, align 8
  %24 = zext i32 %23 to i64
  %25 = getelementptr inbounds i8, ptr %0, i64 168
  %26 = getelementptr inbounds i8, ptr %0, i64 352
  store i64 %24, ptr %26, align 8
  %27 = getelementptr inbounds i8, ptr %0, i64 64
  %28 = load ptr, ptr %27, align 8
  %29 = getelementptr inbounds i8, ptr %0, i64 336
  store ptr %28, ptr %29, align 8
  %30 = getelementptr inbounds i8, ptr %0, i64 72
  %31 = load i32, ptr %30, align 8
  %32 = zext i32 %31 to i64
  %33 = getelementptr inbounds i8, ptr %0, i64 360
  store i64 %32, ptr %33, align 8
  %34 = getelementptr inbounds i8, ptr %0, i64 80
  %35 = load ptr, ptr %34, align 8
  %36 = getelementptr inbounds i8, ptr %0, i64 344
  store ptr %35, ptr %36, align 8
  %37 = tail call i32 @cli_LzmaDecode(ptr noundef nonnull %25) #10
  %switch.selectcmp54 = icmp eq i32 %37, 2
  %switch.select55 = select i1 %switch.selectcmp54, i32 22, i32 26
  %switch.selectcmp56 = icmp eq i32 %37, 0
  %switch.select57 = select i1 %switch.selectcmp56, i32 0, i32 %switch.select55
  %38 = load i64, ptr %26, align 8
  %39 = trunc i64 %38 to i32
  store i32 %39, ptr %22, align 8
  %40 = load ptr, ptr %29, align 8
  store ptr %40, ptr %27, align 8
  %41 = load i64, ptr %33, align 8
  %42 = trunc i64 %41 to i32
  store i32 %42, ptr %30, align 8
  br label %.sink.split

43:                                               ; preds = %1
  %44 = getelementptr inbounds i8, ptr %0, i64 56
  %45 = load i32, ptr %44, align 8
  %46 = getelementptr inbounds i8, ptr %0, i64 368
  %47 = getelementptr inbounds i8, ptr %0, i64 376
  store i32 %45, ptr %47, align 8
  %48 = getelementptr inbounds i8, ptr %0, i64 64
  %49 = load ptr, ptr %48, align 8
  store ptr %49, ptr %46, align 8
  %50 = getelementptr inbounds i8, ptr %0, i64 72
  %51 = load i32, ptr %50, align 8
  %52 = getelementptr inbounds i8, ptr %0, i64 400
  store i32 %51, ptr %52, align 8
  %53 = getelementptr inbounds i8, ptr %0, i64 80
  %54 = load ptr, ptr %53, align 8
  %55 = getelementptr inbounds i8, ptr %0, i64 392
  store ptr %54, ptr %55, align 8
  %56 = tail call i32 @nsis_inflate(ptr noundef nonnull %46) #10
  %switch.selectcmp58 = icmp eq i32 %56, 1
  %switch.select59 = select i1 %switch.selectcmp58, i32 22, i32 26
  %switch.selectcmp60 = icmp eq i32 %56, 0
  %switch.select61 = select i1 %switch.selectcmp60, i32 0, i32 %switch.select59
  %57 = load i32, ptr %47, align 8
  store i32 %57, ptr %44, align 8
  %58 = load ptr, ptr %46, align 8
  store ptr %58, ptr %48, align 8
  %59 = load i32, ptr %52, align 8
  store i32 %59, ptr %50, align 8
  br label %.sink.split

.sink.split:                                      ; preds = %4, %21, %43
  %.sink63 = phi ptr [ %55, %43 ], [ %36, %21 ], [ %16, %4 ]
  %.sink62 = phi ptr [ %53, %43 ], [ %34, %21 ], [ %14, %4 ]
  %.3.ph = phi i32 [ %switch.select61, %43 ], [ %switch.select57, %21 ], [ %switch.select53, %4 ]
  %60 = load ptr, ptr %.sink63, align 8
  store ptr %60, ptr %.sink62, align 8
  br label %61

61:                                               ; preds = %.sink.split, %1
  %.3 = phi i32 [ 26, %1 ], [ %.3.ph, %.sink.split ]
  ret i32 %.3
}